; Function Attrs: nounwind uwtable
define void @Amap_LibCreateRules(ptr noundef initializes((80, 84), (104, 128)) %0, i32 noundef %1) local_unnamed_addr #0 {
  %3 = getelementptr inbounds nuw i8, ptr %0, i64 80
  store i32 %1, ptr %3, align 8
  %4 = tail call noalias dereferenceable_or_null(16) ptr @malloc(i64 noundef 16) #10
  %5 = getelementptr inbounds nuw i8, ptr %4, i64 4
  store i32 0, ptr %5, align 4
  store i32 100, ptr %4, align 8
  %6 = tail call noalias dereferenceable_or_null(800) ptr @malloc(i64 noundef 800) #10
  %7 = getelementptr inbounds nuw i8, ptr %4, i64 8
  store ptr %6, ptr %7, align 8
  %8 = getelementptr inbounds nuw i8, ptr %0, i64 104
  store ptr %4, ptr %8, align 8
  %9 = tail call noalias dereferenceable_or_null(16) ptr @malloc(i64 noundef 16) #10
  %10 = getelementptr inbounds nuw i8, ptr %9, i64 4
  store i32 0, ptr %10, align 4
  store i32 100, ptr %9, align 8
  %11 = tail call noalias dereferenceable_or_null(800) ptr @malloc(i64 noundef 800) #10
  %12 = getelementptr inbounds nuw i8, ptr %9, i64 8
  store ptr %11, ptr %12, align 8
  %13 = getelementptr inbounds nuw i8, ptr %0, i64 112
  store ptr %9, ptr %13, align 8
  %14 = tail call noalias dereferenceable_or_null(16) ptr @malloc(i64 noundef 16) #10
  %15 = getelementptr inbounds nuw i8, ptr %14, i64 4
  store i32 0, ptr %15, align 4
  store i32 100, ptr %14, align 8
  %16 = tail call noalias dereferenceable_or_null(400) ptr @malloc(i64 noundef 400) #10
  %17 = getelementptr inbounds nuw i8, ptr %14, i64 8
  store ptr %16, ptr %17, align 8
  %18 = getelementptr inbounds nuw i8, ptr %0, i64 120
  store ptr %14, ptr %18, align 8
  %19 = tail call i32 @Amap_LibCreateVar(ptr noundef %0) #11
  %20 = getelementptr inbounds nuw i8, ptr %0, i64 24
  %21 = load ptr, ptr %20, align 8
  %22 = getelementptr i8, ptr %21, i64 4
  %.val41 = load i32, ptr %22, align 4
  %23 = icmp sgt i32 %.val41, 0
  br i1 %23, label %.lr.ph, label %.critedge

.lr.ph:                                           ; preds = %2, %42
  %indvars.iv = phi i64 [ %indvars.iv.next, %42 ], [ 0, %2 ]
  %24 = phi ptr [ %43, %42 ], [ %21, %2 ]
  %25 = getelementptr i8, ptr %24, i64 8
  %.val26 = load ptr, ptr %25, align 8
  %26 = getelementptr inbounds nuw ptr, ptr %.val26, i64 %indvars.iv
  %27 = load ptr, ptr %26, align 8
  %28 = getelementptr inbounds nuw i8, ptr %27, i64 56
  %29 = load i32, ptr %28, align 8
  %30 = icmp ult i32 %29, 33554432
  br i1 %30, label %42, label %31

31:                                               ; preds = %.lr.ph
  %32 = getelementptr inbounds nuw i8, ptr %27, i64 48
  %33 = load ptr, ptr %32, align 8
  %34 = icmp eq ptr %33, null
  br i1 %34, label %35, label %41

35:                                               ; preds = %31
  %36 = getelementptr inbounds nuw i8, ptr %27, i64 16
  %37 = load ptr, ptr %36, align 8
  %38 = getelementptr inbounds nuw i8, ptr %27, i64 40
  %39 = load ptr, ptr %38, align 8
  %40 = tail call i32 (ptr, ...) @printf(ptr noundef nonnull dereferenceable(1) @.str.2, ptr noundef %37, ptr noundef %39)
  br label %42

41:                                               ; preds = %31
  tail call void @Amap_CreateRulesForGate(ptr noundef nonnull %0, ptr noundef nonnull %27)
  br label %42

42:                                               ; preds = %.lr.ph, %41, %35
  %indvars.iv.next = add nuw nsw i64 %indvars.iv, 1
  %43 = load ptr, ptr %20, align 8
  %44 = getelementptr i8, ptr %43, i64 4
  %.val = load i32, ptr %44, align 4
  %45 = sext i32 %.val to i64
  %46 = icmp slt i64 %indvars.iv.next, %45
  br i1 %46, label %.lr.ph, label %.critedge, !llvm.loop !28

.critedge:                                        ; preds = %42, %2
  %47 = load ptr, ptr %8, align 8
  %48 = tail call ptr @Amap_LibLookupTableAlloc(ptr noundef %47, i32 noundef 0) #11
  %49 = getelementptr inbounds nuw i8, ptr %0, i64 128
  store ptr %48, ptr %49, align 8
  %50 = load ptr, ptr %13, align 8
  %51 = tail call ptr @Amap_LibLookupTableAlloc(ptr noundef %50, i32 noundef 0) #11
  %52 = getelementptr inbounds nuw i8, ptr %0, i64 136
  store ptr %51, ptr %52, align 8
  %53 = load ptr, ptr %8, align 8
  %54 = getelementptr i8, ptr %53, i64 4
  %.val11.i = load i32, ptr %54, align 4
  %55 = icmp sgt i32 %.val11.i, 0
  br i1 %55, label %.lr.ph.i, label %.critedge.i

.lr.ph.i:                                         ; preds = %.critedge
  %56 = getelementptr i8, ptr %53, i64 8
  br label %57

57:                                               ; preds = %64, %.lr.ph.i
  %.val14.i = phi i32 [ %.val11.i, %.lr.ph.i ], [ %.val.i, %64 ]
  %indvars.iv.i = phi i64 [ 0, %.lr.ph.i ], [ %indvars.iv.next.i, %64 ]
  %.val8.i = load ptr, ptr %56, align 8
  %58 = getelementptr inbounds nuw ptr, ptr %.val8.i, i64 %indvars.iv.i
  %59 = load ptr, ptr %58, align 8
  %.not.i = icmp eq ptr %59, null
  br i1 %.not.i, label %64, label %60

60:                                               ; preds = %57
  %61 = getelementptr inbounds nuw i8, ptr %59, i64 8
  %62 = load ptr, ptr %61, align 8
  %.not.i.i = icmp eq ptr %62, null
  br i1 %.not.i.i, label %Vec_PtrFree.exit.i, label %63

63:                                               ; preds = %60
  tail call void @free(ptr noundef nonnull %62) #11
  br label %Vec_PtrFree.exit.i

Vec_PtrFree.exit.i:                               ; preds = %63, %60
  tail call void @free(ptr noundef nonnull %59) #11
  %.val.pre.i = load i32, ptr %54, align 4
  br label %64

64:                                               ; preds = %Vec_PtrFree.exit.i, %57
  %.val.i = phi i32 [ %.val14.i, %57 ], [ %.val.pre.i, %Vec_PtrFree.exit.i ]
  %indvars.iv.next.i = add nuw nsw i64 %indvars.iv.i, 1
  %65 = sext i32 %.val.i to i64
  %66 = icmp slt i64 %indvars.iv.next.i, %65
  br i1 %66, label %57, label %.critedge.i, !llvm.loop !29

.critedge.i:                                      ; preds = %64, %.critedge
  %67 = getelementptr inbounds nuw i8, ptr %53, i64 8
  %68 = load ptr, ptr %67, align 8
  %.not.i9.i = icmp eq ptr %68, null
  br i1 %.not.i9.i, label %Vec_VecFree.exit, label %69

69:                                               ; preds = %.critedge.i
  tail call void @free(ptr noundef nonnull %68) #11
  br label %Vec_VecFree.exit

Vec_VecFree.exit:                                 ; preds = %.critedge.i, %69
  tail call void @free(ptr noundef nonnull %53) #11
  store ptr null, ptr %8, align 8
  %70 = load ptr, ptr %13, align 8
  %71 = getelementptr i8, ptr %70, i64 4
  %.val11.i27 = load i32, ptr %71, align 4
  %72 = icmp sgt i32 %.val11.i27, 0
  br i1 %72, label %.lr.ph.i30, label %.critedge.i28

.lr.ph.i30:                                       ; preds = %Vec_VecFree.exit
  %73 = getelementptr i8, ptr %70, i64 8
  br label %74

74:                                               ; preds = %81, %.lr.ph.i30
  %.val14.i31 = phi i32 [ %.val11.i27, %.lr.ph.i30 ], [ %.val.i38, %81 ]
  %indvars.iv.i32 = phi i64 [ 0, %.lr.ph.i30 ], [ %indvars.iv.next.i39, %81 ]
  %.val8.i33 = load ptr, ptr %73, align 8
  %75 = getelementptr inbounds nuw ptr, ptr %.val8.i33, i64 %indvars.iv.i32
  %76 = load ptr, ptr %75, align 8
  %.not.i34 = icmp eq ptr %76, null
  br i1 %.not.i34, label %81, label %77

77:                                               ; preds = %74
  %78 = getelementptr inbounds nuw i8, ptr %76, i64 8
  %79 = load ptr, ptr %78, align 8
  %.not.i.i35 = icmp eq ptr %79, null
  br i1 %.not.i.i35, label %Vec_PtrFree.exit.i36, label %80

80:                                               ; preds = %77
  tail call void @free(ptr noundef nonnull %79) #11
  br label %Vec_PtrFree.exit.i36

Vec_PtrFree.exit.i36:                             ; preds = %80, %77
  tail call void @free(ptr noundef nonnull %76) #11
  %.val.pre.i37 = load i32, ptr %71, align 4
  br label %81

81:                                               ; preds = %Vec_PtrFree.exit.i36, %74
  %.val.i38 = phi i32 [ %.val14.i31, %74 ], [ %.val.pre.i37, %Vec_PtrFree.exit.i36 ]
  %indvars.iv.next.i39 = add nuw nsw i64 %indvars.iv.i32, 1
  %82 = sext i32 %.val.i38 to i64
  %83 = icmp slt i64 %indvars.iv.next.i39, %82
  br i1 %83, label %74, label %.critedge.i28, !llvm.loop !29

.critedge.i28:                                    ; preds = %81, %Vec_VecFree.exit
  %84 = getelementptr inbounds nuw i8, ptr %70, i64 8
  %85 = load ptr, ptr %84, align 8
  %.not.i9.i29 = icmp eq ptr %85, null
  br i1 %.not.i9.i29, label %Vec_VecFree.exit40, label %86

86:                                               ; preds = %.critedge.i28
  tail call void @free(ptr noundef nonnull %85) #11
  br label %Vec_VecFree.exit40

Vec_VecFree.exit40:                               ; preds = %.critedge.i28, %86
  tail call void @free(ptr noundef nonnull %70) #11
  store ptr null, ptr %13, align 8
  ret void
}